; Function Attrs: nounwind sspstrong uwtable
define internal range(i64 1, -7) i64 @time_s_now(ptr noundef readnone captures(none) %0, i64 noundef %1, i64 noundef %2) #1 {
  %4 = tail call i64 @rb_data_typed_object_zalloc(i64 noundef %1, i64 noundef 48, ptr noundef nonnull @time_data_type) #21
  %5 = inttoptr i64 %4 to ptr
  %6 = getelementptr inbounds nuw i8, ptr %5, i64 24
  %7 = load i64, ptr %6, align 8, !tbaa !20
  %8 = and i64 %7, 2
  %.not.i.i = icmp eq i64 %8, 0
  %9 = getelementptr i8, ptr %5, i64 32
  br i1 %.not.i.i, label %10, label %time_s_alloc.exit

10:                                               ; preds = %3
  %11 = load ptr, ptr %9, align 8, !tbaa !24
  br label %time_s_alloc.exit

time_s_alloc.exit:                                ; preds = %3, %10
  %12 = phi ptr [ %11, %10 ], [ %9, %3 ]
  %13 = getelementptr inbounds nuw i8, ptr %12, i64 40
  %14 = load i64, ptr %13, align 8
  %15 = and i64 %14, -131941395333121
  %16 = or disjoint i64 %15, 26388279066624
  store i64 %16, ptr %13, align 8
  store i64 1, ptr %12, align 8, !tbaa !25
  %17 = getelementptr inbounds nuw i8, ptr %12, i64 32
  store i64 4, ptr %17, align 8, !tbaa !29
  %18 = tail call i64 @time_init_now(ptr poison, i64 noundef %4, i64 noundef %2)
  ret i64 %4
}